; Function Attrs: mustprogress nofree norecurse nosync nounwind willreturn memory(read, inaccessiblemem: none) uwtable
define noundef zeroext i1 @_ZNK6casadi16SparsityInternal8is_denseEv(ptr nocapture noundef nonnull readonly align 8 dereferenceable(56) %0) local_unnamed_addr #11 align 2 {
  %2 = getelementptr inbounds i8, ptr %0, i64 24
  %3 = load ptr, ptr %2, align 8
  %4 = getelementptr inbounds i8, ptr %3, i64 16
  %5 = getelementptr inbounds i8, ptr %3, i64 8
  %6 = load i64, ptr %5, align 8
  %7 = getelementptr inbounds i64, ptr %4, i64 %6
  %8 = load i64, ptr %7, align 8
  %9 = load i64, ptr %3, align 8
  %10 = mul nsw i64 %9, %6
  %11 = icmp eq i64 %8, %10
  ret i1 %11
}